target datalayout = "e-m:e-p270:32:32-p271:32:32-p272:64:64-i64:64-i128:128-f80:128-n8:16:32:64-S128"
target triple = "x86_64-unknown-linux-gnu"

%"class.icu_75::UObject" = type { ptr }
%"class.icu_75::UnicodeString" = type { %"class.icu_75::Replaceable", %"union.icu_75::UnicodeString::StackBufferOrFields" }
%"class.icu_75::Replaceable" = type { %"class.icu_75::UObject" }
%"union.icu_75::UnicodeString::StackBufferOrFields" = type { %struct.anon.0, [32 x i8] }
%struct.anon.0 = type { i16, i32, i32, ptr }
%"class.icu_75::AlphabeticIndex" = type { %"class.icu_75::UObject", ptr, i32, i32, ptr, i32, ptr, ptr, ptr, ptr, ptr, %"class.icu_75::UnicodeString", %"class.icu_75::UnicodeString", %"class.icu_75::UnicodeString", %"class.icu_75::UnicodeString", %"class.icu_75::UnicodeString" }
%struct.anon = type { i16, [27 x i16] }
%"class.icu_75::UnicodeSet" = type <{ %"class.icu_75::UnicodeFilter", ptr, i32, i32, i8, [7 x i8], ptr, ptr, i32, [4 x i8], ptr, i32, [4 x i8], ptr, ptr, [25 x i32], [4 x i8] }>
%"class.icu_75::UnicodeFilter" = type { %"class.icu_75::UnicodeFunctor", %"class.icu_75::UnicodeMatcher" }
%"class.icu_75::UnicodeFunctor" = type { %"class.icu_75::UObject" }
%"class.icu_75::UnicodeMatcher" = type { ptr }
%"class.icu_75::UnicodeSetIterator" = type { %"class.icu_75::UObject", i32, i32, ptr, ptr, i32, i32, i32, i32, i32, i32, ptr }

@_ZN6icu_7512_GLOBAL__N_14BASEE = internal constant [1 x i16] [i16 -560], align 2

; Function Attrs: mustprogress nounwind uwtable
define linkonce_odr noundef ptr @_ZNK6icu_7513UnicodeString13getArrayStartEv(ptr noundef nonnull align 8 dereferenceable(64) %this) #0 comdat align 2 {
entry:
  %this.addr = alloca ptr, align 8
  store ptr %this, ptr %this.addr, align 8
  %this1 = load ptr, ptr %this.addr, align 8
  %fUnion = getelementptr inbounds %"class.icu_75::UnicodeString", ptr %this1, i32 0, i32 1
  %fLengthAndFlags = getelementptr inbounds %struct.anon.0, ptr %fUnion, i32 0, i32 0
  %0 = load i16, ptr %fLengthAndFlags, align 8
  %conv = sext i16 %0 to i32
  %and = and i32 %conv, 2
  %tobool = icmp ne i32 %and, 0
  br i1 %tobool, label %cond.true, label %cond.false

cond.true:                                        ; preds = %entry
  %fUnion2 = getelementptr inbounds %"class.icu_75::UnicodeString", ptr %this1, i32 0, i32 1
  %fBuffer = getelementptr inbounds %struct.anon, ptr %fUnion2, i32 0, i32 1
  %arraydecay = getelementptr inbounds [27 x i16], ptr %fBuffer, i64 0, i64 0
  br label %cond.end

cond.false:                                       ; preds = %entry
  %fUnion3 = getelementptr inbounds %"class.icu_75::UnicodeString", ptr %this1, i32 0, i32 1
  %fArray = getelementptr inbounds %struct.anon.0, ptr %fUnion3, i32 0, i32 3
  %1 = load ptr, ptr %fArray, align 8
  br label %cond.end

cond.end:                                         ; preds = %cond.false, %cond.true
  %cond = phi ptr [ %arraydecay, %cond.true ], [ %1, %cond.false ]
  ret ptr %cond
}

; Function Attrs: mustprogress uwtable
define linkonce_odr noundef zeroext i16 @_ZNK6icu_7513UnicodeString8doCharAtEi(ptr noundef nonnull align 8 dereferenceable(64) %this, i32 noundef %offset) #2 comdat align 2 {
entry:
  %retval = alloca i16, align 2
  %this.addr = alloca ptr, align 8
  %offset.addr = alloca i32, align 4
  store ptr %this, ptr %this.addr, align 8
  store i32 %offset, ptr %offset.addr, align 4
  %this1 = load ptr, ptr %this.addr, align 8
  %0 = load i32, ptr %offset.addr, align 4
  %call = call noundef i32 @_ZNK6icu_7513UnicodeString6lengthEv(ptr noundef nonnull align 8 dereferenceable(64) %this1)
  %cmp = icmp ult i32 %0, %call
  br i1 %cmp, label %if.then, label %if.else

if.then:                                          ; preds = %entry
  %call2 = call noundef ptr @_ZNK6icu_7513UnicodeString13getArrayStartEv(ptr noundef nonnull align 8 dereferenceable(64) %this1)
  %1 = load i32, ptr %offset.addr, align 4
  %idxprom = sext i32 %1 to i64
  %arrayidx = getelementptr inbounds i16, ptr %call2, i64 %idxprom
  %2 = load i16, ptr %arrayidx, align 2
  store i16 %2, ptr %retval, align 2
  br label %return

if.else:                                          ; preds = %entry
  store i16 -1, ptr %retval, align 2
  br label %return

return:                                           ; preds = %if.else, %if.then
  %3 = load i16, ptr %retval, align 2
  ret i16 %3
}

; Function Attrs: mustprogress nounwind uwtable
define linkonce_odr noundef i32 @_ZNK6icu_7513UnicodeString14getShortLengthEv(ptr noundef nonnull align 8 dereferenceable(64) %this) #0 comdat align 2 {
entry:
  %this.addr = alloca ptr, align 8
  store ptr %this, ptr %this.addr, align 8
  %this1 = load ptr, ptr %this.addr, align 8
  %fUnion = getelementptr inbounds %"class.icu_75::UnicodeString", ptr %this1, i32 0, i32 1
  %fLengthAndFlags = getelementptr inbounds %struct.anon.0, ptr %fUnion, i32 0, i32 0
  %0 = load i16, ptr %fLengthAndFlags, align 8
  %conv = sext i16 %0 to i32
  %shr = ashr i32 %conv, 5
  ret i32 %shr
}

; Function Attrs: mustprogress nounwind uwtable
define linkonce_odr noundef signext i8 @_ZNK6icu_7513UnicodeString14hasShortLengthEv(ptr noundef nonnull align 8 dereferenceable(64) %this) #0 comdat align 2 {
entry:
  %this.addr = alloca ptr, align 8
  store ptr %this, ptr %this.addr, align 8
  %this1 = load ptr, ptr %this.addr, align 8
  %fUnion = getelementptr inbounds %"class.icu_75::UnicodeString", ptr %this1, i32 0, i32 1
  %fLengthAndFlags = getelementptr inbounds %struct.anon.0, ptr %fUnion, i32 0, i32 0
  %0 = load i16, ptr %fLengthAndFlags, align 8
  %conv = sext i16 %0 to i32
  %cmp = icmp sge i32 %conv, 0
  %conv2 = zext i1 %cmp to i8
  ret i8 %conv2
}

; Function Attrs: mustprogress uwtable
define linkonce_odr noundef zeroext i16 @_ZNK6icu_7513UnicodeString6charAtEi(ptr noundef nonnull align 8 dereferenceable(64) %this, i32 noundef %offset) #2 comdat align 2 {
entry:
  %this.addr = alloca ptr, align 8
  %offset.addr = alloca i32, align 4
  store ptr %this, ptr %this.addr, align 8
  store i32 %offset, ptr %offset.addr, align 4
  %this1 = load ptr, ptr %this.addr, align 8
  %0 = load i32, ptr %offset.addr, align 4
  %call = call noundef zeroext i16 @_ZNK6icu_7513UnicodeString8doCharAtEi(ptr noundef nonnull align 8 dereferenceable(64) %this1, i32 noundef %0)
  ret i16 %call
}

; Function Attrs: mustprogress uwtable
define linkonce_odr noundef i32 @_ZNK6icu_7513UnicodeString6lengthEv(ptr noundef nonnull align 8 dereferenceable(64) %this) #2 comdat align 2 {
entry:
  %this.addr = alloca ptr, align 8
  store ptr %this, ptr %this.addr, align 8
  %this1 = load ptr, ptr %this.addr, align 8
  %call = call noundef signext i8 @_ZNK6icu_7513UnicodeString14hasShortLengthEv(ptr noundef nonnull align 8 dereferenceable(64) %this1)
  %tobool = icmp ne i8 %call, 0
  br i1 %tobool, label %cond.true, label %cond.false

cond.true:                                        ; preds = %entry
  %call2 = call noundef i32 @_ZNK6icu_7513UnicodeString14getShortLengthEv(ptr noundef nonnull align 8 dereferenceable(64) %this1)
  br label %cond.end

cond.false:                                       ; preds = %entry
  %fUnion = getelementptr inbounds %"class.icu_75::UnicodeString", ptr %this1, i32 0, i32 1
  %fLength = getelementptr inbounds %struct.anon.0, ptr %fUnion, i32 0, i32 1
  %0 = load i32, ptr %fLength, align 4
  br label %cond.end

cond.end:                                         ; preds = %cond.false, %cond.true
  %cond = phi i32 [ %call2, %cond.true ], [ %0, %cond.false ]
  ret i32 %cond
}

; Function Attrs: mustprogress nounwind uwtable
define internal noundef signext i8 @_ZL9U_FAILURE10UErrorCode(i32 noundef %code) #0 {
entry:
  %code.addr = alloca i32, align 4
  store i32 %code, ptr %code.addr, align 4
  %0 = load i32, ptr %code.addr, align 4
  %cmp = icmp sgt i32 %0, 0
  %conv = zext i1 %cmp to i8
  ret i8 %conv
}

; Function Attrs: mustprogress uwtable
define noundef signext i8 @_ZN6icu_7515AlphabeticIndex25addChineseIndexCharactersER10UErrorCode(ptr noundef nonnull align 8 dereferenceable(400) %this, ptr noundef nonnull align 4 dereferenceable(4) %errorCode) #2 align 2 personality ptr @__gxx_personality_v0 {
entry:
  %retval = alloca i8, align 1
  %this.addr = alloca ptr, align 8
  %errorCode.addr = alloca ptr, align 8
  %contractions = alloca %"class.icu_75::UnicodeSet", align 8
  %exn.slot = alloca ptr, align 8
  %ehselector.slot = alloca i32, align 4
  %cleanup.dest.slot = alloca i32, align 4
  %iter = alloca %"class.icu_75::UnicodeSetIterator", align 8
  %s = alloca ptr, align 8
  %c = alloca i16, align 2
  store ptr %this, ptr %this.addr, align 8
  store ptr %errorCode, ptr %errorCode.addr, align 8
  %this1 = load ptr, ptr %this.addr, align 8
  call void @_ZN6icu_7510UnicodeSetC1Ev(ptr noundef nonnull align 8 dereferenceable(200) %contractions)
  %collatorPrimaryOnly_ = getelementptr inbounds %"class.icu_75::AlphabeticIndex", ptr %this1, i32 0, i32 9
  %0 = load ptr, ptr %collatorPrimaryOnly_, align 8
  %1 = load i16, ptr @_ZN6icu_7512_GLOBAL__N_14BASEE, align 2
  %conv = zext i16 %1 to i32
  %2 = load ptr, ptr %errorCode.addr, align 8
  invoke void @_ZNK6icu_7517RuleBasedCollator23internalAddContractionsEiRNS_10UnicodeSetER10UErrorCode(ptr noundef nonnull align 8 dereferenceable(272) %0, i32 noundef %conv, ptr noundef nonnull align 8 dereferenceable(200) %contractions, ptr noundef nonnull align 4 dereferenceable(4) %2)
          to label %invoke.cont unwind label %lpad

invoke.cont:                                      ; preds = %entry
  %3 = load ptr, ptr %errorCode.addr, align 8
  %4 = load i32, ptr %3, align 4
  %call = invoke noundef signext i8 @_ZL9U_FAILURE10UErrorCode(i32 noundef %4)
          to label %invoke.cont2 unwind label %lpad

invoke.cont2:                                     ; preds = %invoke.cont
  %tobool = icmp ne i8 %call, 0
  br i1 %tobool, label %if.then, label %lor.lhs.false

lor.lhs.false:                                    ; preds = %invoke.cont2
  %call4 = invoke noundef signext i8 @_ZNK6icu_7510UnicodeSet7isEmptyEv(ptr noundef nonnull align 8 dereferenceable(200) %contractions)
          to label %invoke.cont3 unwind label %lpad

invoke.cont3:                                     ; preds = %lor.lhs.false
  %tobool5 = icmp ne i8 %call4, 0
  br i1 %tobool5, label %if.then, label %if.end

if.then:                                          ; preds = %invoke.cont3, %invoke.cont2
  store i8 0, ptr %retval, align 1
  store i32 1, ptr %cleanup.dest.slot, align 4
  br label %cleanup

lpad:                                             ; preds = %invoke.cont6, %if.end, %lor.lhs.false, %invoke.cont, %entry
  %5 = landingpad { ptr, i32 }
          cleanup
  %6 = extractvalue { ptr, i32 } %5, 0
  store ptr %6, ptr %exn.slot, align 8
  %7 = extractvalue { ptr, i32 } %5, 1
  store i32 %7, ptr %ehselector.slot, align 4
  br label %ehcleanup

if.end:                                           ; preds = %invoke.cont3
  %initialLabels_ = getelementptr inbounds %"class.icu_75::AlphabeticIndex", ptr %this1, i32 0, i32 6
  %8 = load ptr, ptr %initialLabels_, align 8
  %call7 = invoke noundef nonnull align 8 dereferenceable(200) ptr @_ZN6icu_7510UnicodeSet6addAllERKS0_(ptr noundef nonnull align 8 dereferenceable(200) %8, ptr noundef nonnull align 8 dereferenceable(200) %contractions)
          to label %invoke.cont6 unwind label %lpad

invoke.cont6:                                     ; preds = %if.end
  invoke void @_ZN6icu_7518UnicodeSetIteratorC1ERKNS_10UnicodeSetE(ptr noundef nonnull align 8 dereferenceable(64) %iter, ptr noundef nonnull align 8 dereferenceable(200) %contractions)
          to label %invoke.cont8 unwind label %lpad

invoke.cont8:                                     ; preds = %invoke.cont6
  br label %while.cond

while.cond:                                       ; preds = %if.end26, %invoke.cont8
  %call11 = invoke noundef signext i8 @_ZN6icu_7518UnicodeSetIterator4nextEv(ptr noundef nonnull align 8 dereferenceable(64) %iter)
          to label %invoke.cont10 unwind label %lpad9

invoke.cont10:                                    ; preds = %while.cond
  %tobool12 = icmp ne i8 %call11, 0
  br i1 %tobool12, label %while.body, label %while.end

while.body:                                       ; preds = %invoke.cont10
  %call14 = invoke noundef nonnull align 8 dereferenceable(64) ptr @_ZN6icu_7518UnicodeSetIterator9getStringEv(ptr noundef nonnull align 8 dereferenceable(64) %iter)
          to label %invoke.cont13 unwind label %lpad9

invoke.cont13:                                    ; preds = %while.body
  store ptr %call14, ptr %s, align 8
  %9 = load ptr, ptr %s, align 8
  %10 = load ptr, ptr %s, align 8
  %call16 = invoke noundef i32 @_ZNK6icu_7513UnicodeString6lengthEv(ptr noundef nonnull align 8 dereferenceable(64) %10)
          to label %invoke.cont15 unwind label %lpad9

invoke.cont15:                                    ; preds = %invoke.cont13
  %sub = sub nsw i32 %call16, 1
  %call18 = invoke noundef zeroext i16 @_ZNK6icu_7513UnicodeString6charAtEi(ptr noundef nonnull align 8 dereferenceable(64) %9, i32 noundef %sub)
          to label %invoke.cont17 unwind label %lpad9

invoke.cont17:                                    ; preds = %invoke.cont15
  store i16 %call18, ptr %c, align 2
  %11 = load i16, ptr %c, align 2
  %conv19 = zext i16 %11 to i32
  %cmp = icmp sle i32 65, %conv19
  br i1 %cmp, label %land.lhs.true, label %if.end26

land.lhs.true:                                    ; preds = %invoke.cont17
  %12 = load i16, ptr %c, align 2
  %conv20 = zext i16 %12 to i32
  %cmp21 = icmp sle i32 %conv20, 90
  br i1 %cmp21, label %if.then22, label %if.end26

if.then22:                                        ; preds = %land.lhs.true
  %initialLabels_23 = getelementptr inbounds %"class.icu_75::AlphabeticIndex", ptr %this1, i32 0, i32 6
  %13 = load ptr, ptr %initialLabels_23, align 8
  %call25 = invoke noundef nonnull align 8 dereferenceable(200) ptr @_ZN6icu_7510UnicodeSet3addEii(ptr noundef nonnull align 8 dereferenceable(200) %13, i32 noundef 65, i32 noundef 90)
          to label %invoke.cont24 unwind label %lpad9

invoke.cont24:                                    ; preds = %if.then22
  br label %while.end

lpad9:                                            ; preds = %if.then22, %invoke.cont15, %invoke.cont13, %while.body, %while.cond
  %14 = landingpad { ptr, i32 }
          cleanup
  %15 = extractvalue { ptr, i32 } %14, 0
  store ptr %15, ptr %exn.slot, align 8
  %16 = extractvalue { ptr, i32 } %14, 1
  store i32 %16, ptr %ehselector.slot, align 4
  call void @_ZN6icu_7518UnicodeSetIteratorD1Ev(ptr noundef nonnull align 8 dereferenceable(64) %iter) #7
  br label %ehcleanup

if.end26:                                         ; preds = %land.lhs.true, %invoke.cont17
  br label %while.cond, !llvm.loop !23

while.end:                                        ; preds = %invoke.cont24, %invoke.cont10
  store i8 1, ptr %retval, align 1
  store i32 1, ptr %cleanup.dest.slot, align 4
  call void @_ZN6icu_7518UnicodeSetIteratorD1Ev(ptr noundef nonnull align 8 dereferenceable(64) %iter) #7
  br label %cleanup

cleanup:                                          ; preds = %while.end, %if.then
  call void @_ZN6icu_7510UnicodeSetD1Ev(ptr noundef nonnull align 8 dereferenceable(200) %contractions) #7
  %17 = load i8, ptr %retval, align 1
  ret i8 %17

ehcleanup:                                        ; preds = %lpad9, %lpad
  call void @_ZN6icu_7510UnicodeSetD1Ev(ptr noundef nonnull align 8 dereferenceable(200) %contractions) #7
  br label %eh.resume

eh.resume:                                        ; preds = %ehcleanup
  %exn = load ptr, ptr %exn.slot, align 8
  %sel = load i32, ptr %ehselector.slot, align 4
  %lpad.val = insertvalue { ptr, i32 } poison, ptr %exn, 0
  %lpad.val27 = insertvalue { ptr, i32 } %lpad.val, i32 %sel, 1
  resume { ptr, i32 } %lpad.val27
}