; Function Attrs: mustprogress uwtable
define noundef signext i8 @_ZN6icu_7515AlphabeticIndex25addChineseIndexCharactersER10UErrorCode(ptr nocapture noundef nonnull readonly align 8 dereferenceable(400) %this, ptr noundef nonnull align 4 dereferenceable(4) %errorCode) local_unnamed_addr #3 align 2 personality ptr @__gxx_personality_v0 {
entry:
  %contractions = alloca %"class.icu_75::UnicodeSet", align 8
  %iter = alloca %"class.icu_75::UnicodeSetIterator", align 8
  call void @_ZN6icu_7510UnicodeSetC1Ev(ptr noundef nonnull align 8 dereferenceable(200) %contractions)
  %collatorPrimaryOnly_ = getelementptr inbounds i8, ptr %this, i64 64
  %0 = load ptr, ptr %collatorPrimaryOnly_, align 8
  invoke void @_ZNK6icu_7517RuleBasedCollator23internalAddContractionsEiRNS_10UnicodeSetER10UErrorCode(ptr noundef nonnull align 8 dereferenceable(272) %0, i32 noundef 64976, ptr noundef nonnull align 8 dereferenceable(200) %contractions, ptr noundef nonnull align 4 dereferenceable(4) %errorCode)
          to label %invoke.cont unwind label %lpad

invoke.cont:                                      ; preds = %entry
  %1 = load i32, ptr %errorCode, align 4
  %cmp.i = icmp slt i32 %1, 1
  br i1 %cmp.i, label %lor.lhs.false, label %cleanup

lor.lhs.false:                                    ; preds = %invoke.cont
  %call4 = invoke noundef signext i8 @_ZNK6icu_7510UnicodeSet7isEmptyEv(ptr noundef nonnull align 8 dereferenceable(200) %contractions)
          to label %invoke.cont3 unwind label %lpad

invoke.cont3:                                     ; preds = %lor.lhs.false
  %tobool5.not = icmp eq i8 %call4, 0
  br i1 %tobool5.not, label %if.end, label %cleanup

lpad:                                             ; preds = %invoke.cont6, %if.end, %lor.lhs.false, %entry
  %2 = landingpad { ptr, i32 }
          cleanup
  br label %ehcleanup

if.end:                                           ; preds = %invoke.cont3
  %initialLabels_ = getelementptr inbounds i8, ptr %this, i64 40
  %3 = load ptr, ptr %initialLabels_, align 8
  %call7 = invoke noundef nonnull align 8 dereferenceable(200) ptr @_ZN6icu_7510UnicodeSet6addAllERKS0_(ptr noundef nonnull align 8 dereferenceable(200) %3, ptr noundef nonnull align 8 dereferenceable(200) %contractions)
          to label %invoke.cont6 unwind label %lpad

invoke.cont6:                                     ; preds = %if.end
  invoke void @_ZN6icu_7518UnicodeSetIteratorC1ERKNS_10UnicodeSetE(ptr noundef nonnull align 8 dereferenceable(64) %iter, ptr noundef nonnull align 8 dereferenceable(200) %contractions)
          to label %while.cond unwind label %lpad

while.cond:                                       ; preds = %invoke.cont6, %invoke.cont17
  %call11 = invoke noundef signext i8 @_ZN6icu_7518UnicodeSetIterator4nextEv(ptr noundef nonnull align 8 dereferenceable(64) %iter)
          to label %invoke.cont10 unwind label %lpad9.loopexit

invoke.cont10:                                    ; preds = %while.cond
  %tobool12.not = icmp eq i8 %call11, 0
  br i1 %tobool12.not, label %while.end, label %while.body

while.body:                                       ; preds = %invoke.cont10
  %call14 = invoke noundef nonnull align 8 dereferenceable(64) ptr @_ZN6icu_7518UnicodeSetIterator9getStringEv(ptr noundef nonnull align 8 dereferenceable(64) %iter)
          to label %invoke.cont15 unwind label %lpad9.loopexit

invoke.cont15:                                    ; preds = %while.body
  %fUnion.i.i = getelementptr inbounds i8, ptr %call14, i64 8
  %4 = load i16, ptr %fUnion.i.i, align 8
  %cmp.i.i = icmp slt i16 %4, 0
  %5 = ashr i16 %4, 5
  %shr.i.i = sext i16 %5 to i32
  %fLength.i = getelementptr inbounds i8, ptr %call14, i64 12
  %6 = load i32, ptr %fLength.i, align 4
  %cond.i = select i1 %cmp.i.i, i32 %6, i32 %shr.i.i
  %cmp.i.i5.not = icmp eq i32 %cond.i, 0
  br i1 %cmp.i.i5.not, label %invoke.cont17, label %if.then.i.i

if.then.i.i:                                      ; preds = %invoke.cont15
  %7 = and i16 %4, 2
  %tobool.not.i.i.i = icmp eq i16 %7, 0
  %fBuffer.i.i.i = getelementptr inbounds i8, ptr %call14, i64 10
  %fArray.i.i.i = getelementptr inbounds i8, ptr %call14, i64 24
  %8 = load ptr, ptr %fArray.i.i.i, align 8
  %cond.i2.i.i = select i1 %tobool.not.i.i.i, ptr %8, ptr %fBuffer.i.i.i
  %9 = sext i32 %cond.i to i64
  %10 = getelementptr i16, ptr %cond.i2.i.i, i64 %9
  %arrayidx.i.i = getelementptr i8, ptr %10, i64 -2
  %11 = load i16, ptr %arrayidx.i.i, align 2
  br label %invoke.cont17

invoke.cont17:                                    ; preds = %if.then.i.i, %invoke.cont15
  %retval.0.i.i = phi i16 [ %11, %if.then.i.i ], [ -1, %invoke.cont15 ]
  %12 = add i16 %retval.0.i.i, -65
  %or.cond = icmp ult i16 %12, 26
  br i1 %or.cond, label %if.then22, label %while.cond, !llvm.loop !29

if.then22:                                        ; preds = %invoke.cont17
  %13 = load ptr, ptr %initialLabels_, align 8
  %call25 = invoke noundef nonnull align 8 dereferenceable(200) ptr @_ZN6icu_7510UnicodeSet3addEii(ptr noundef nonnull align 8 dereferenceable(200) %13, i32 noundef 65, i32 noundef 90)
          to label %while.end unwind label %lpad9.loopexit.split-lp

lpad9.loopexit:                                   ; preds = %while.cond, %while.body
  %lpad.loopexit = landingpad { ptr, i32 }
          cleanup
  br label %lpad9

lpad9.loopexit.split-lp:                          ; preds = %if.then22
  %lpad.loopexit.split-lp = landingpad { ptr, i32 }
          cleanup
  br label %lpad9

lpad9:                                            ; preds = %lpad9.loopexit.split-lp, %lpad9.loopexit
  %lpad.phi = phi { ptr, i32 } [ %lpad.loopexit, %lpad9.loopexit ], [ %lpad.loopexit.split-lp, %lpad9.loopexit.split-lp ]
  call void @_ZN6icu_7518UnicodeSetIteratorD1Ev(ptr noundef nonnull align 8 dereferenceable(64) %iter) #16
  br label %ehcleanup

while.end:                                        ; preds = %invoke.cont10, %if.then22
  call void @_ZN6icu_7518UnicodeSetIteratorD1Ev(ptr noundef nonnull align 8 dereferenceable(64) %iter) #16
  br label %cleanup

cleanup:                                          ; preds = %invoke.cont, %invoke.cont3, %while.end
  %retval.0 = phi i8 [ 1, %while.end ], [ 0, %invoke.cont3 ], [ 0, %invoke.cont ]
  call void @_ZN6icu_7510UnicodeSetD1Ev(ptr noundef nonnull align 8 dereferenceable(200) %contractions) #16
  ret i8 %retval.0

ehcleanup:                                        ; preds = %lpad9, %lpad
  %.pn = phi { ptr, i32 } [ %lpad.phi, %lpad9 ], [ %2, %lpad ]
  call void @_ZN6icu_7510UnicodeSetD1Ev(ptr noundef nonnull align 8 dereferenceable(200) %contractions) #16
  resume { ptr, i32 } %.pn
}